
code1:     file format elf64-x86-64


Disassembly of section .init:

00000000004003c8 <_init>:
  4003c8:	48 83 ec 08          	sub    rsp,0x8
  4003cc:	48 8b 05 25 0c 20 00 	mov    rax,QWORD PTR [rip+0x200c25]        # 600ff8 <_DYNAMIC+0x1d0>
  4003d3:	48 85 c0             	test   rax,rax
  4003d6:	74 05                	je     4003dd <_init+0x15>
  4003d8:	e8 43 00 00 00       	call   400420 <__libc_start_main@plt+0x10>
  4003dd:	48 83 c4 08          	add    rsp,0x8
  4003e1:	c3                   	ret    

Disassembly of section .plt:

00000000004003f0 <puts@plt-0x10>:
  4003f0:	ff 35 12 0c 20 00    	push   QWORD PTR [rip+0x200c12]        # 601008 <_GLOBAL_OFFSET_TABLE_+0x8>
  4003f6:	ff 25 14 0c 20 00    	jmp    QWORD PTR [rip+0x200c14]        # 601010 <_GLOBAL_OFFSET_TABLE_+0x10>
  4003fc:	0f 1f 40 00          	nop    DWORD PTR [rax+0x0]

0000000000400400 <puts@plt>:
  400400:	ff 25 12 0c 20 00    	jmp    QWORD PTR [rip+0x200c12]        # 601018 <_GLOBAL_OFFSET_TABLE_+0x18>
  400406:	68 00 00 00 00       	push   0x0
  40040b:	e9 e0 ff ff ff       	jmp    4003f0 <_init+0x28>

0000000000400410 <__libc_start_main@plt>:
  400410:	ff 25 0a 0c 20 00    	jmp    QWORD PTR [rip+0x200c0a]        # 601020 <_GLOBAL_OFFSET_TABLE_+0x20>
  400416:	68 01 00 00 00       	push   0x1
  40041b:	e9 d0 ff ff ff       	jmp    4003f0 <_init+0x28>

Disassembly of section .plt.got:

0000000000400420 <.plt.got>:
  400420:	ff 25 d2 0b 20 00    	jmp    QWORD PTR [rip+0x200bd2]        # 600ff8 <_DYNAMIC+0x1d0>
  400426:	66 90                	xchg   ax,ax

Disassembly of section .text:

0000000000400430 <_start>:
  400430:	31 ed                	xor    ebp,ebp
  400432:	49 89 d1             	mov    r9,rdx
  400435:	5e                   	pop    rsi
  400436:	48 89 e2             	mov    rdx,rsp
  400439:	48 83 e4 f0          	and    rsp,0xfffffffffffffff0
  40043d:	50                   	push   rax
  40043e:	54                   	push   rsp
  40043f:	49 c7 c0 c0 05 40 00 	mov    r8,0x4005c0
  400446:	48 c7 c1 50 05 40 00 	mov    rcx,0x400550
  40044d:	48 c7 c7 26 05 40 00 	mov    rdi,0x400526
  400454:	e8 b7 ff ff ff       	call   400410 <__libc_start_main@plt>
  400459:	f4                   	hlt    
  40045a:	66 0f 1f 44 00 00    	nop    WORD PTR [rax+rax*1+0x0]

0000000000400460 <deregister_tm_clones>:
  400460:	b8 47 10 60 00       	mov    eax,0x601047
  400465:	55                   	push   rbp
  400466:	48 2d 40 10 60 00    	sub    rax,0x601040
  40046c:	48 83 f8 0e          	cmp    rax,0xe
  400470:	48 89 e5             	mov    rbp,rsp
  400473:	76 1b                	jbe    400490 <deregister_tm_clones+0x30>
  400475:	b8 00 00 00 00       	mov    eax,0x0
  40047a:	48 85 c0             	test   rax,rax
  40047d:	74 11                	je     400490 <deregister_tm_clones+0x30>
  40047f:	5d                   	pop    rbp
  400480:	bf 40 10 60 00       	mov    edi,0x601040
  400485:	ff e0                	jmp    rax
  400487:	66 0f 1f 84 00 00 00 	nop    WORD PTR [rax+rax*1+0x0]
  40048e:	00 00 
  400490:	5d                   	pop    rbp
  400491:	c3                   	ret    
  400492:	0f 1f 40 00          	nop    DWORD PTR [rax+0x0]
  400496:	66 2e 0f 1f 84 00 00 	nop    WORD PTR cs:[rax+rax*1+0x0]
  40049d:	00 00 00 

00000000004004a0 <register_tm_clones>:
  4004a0:	be 40 10 60 00       	mov    esi,0x601040
  4004a5:	55                   	push   rbp
  4004a6:	48 81 ee 40 10 60 00 	sub    rsi,0x601040
  4004ad:	48 c1 fe 03          	sar    rsi,0x3
  4004b1:	48 89 e5             	mov    rbp,rsp
  4004b4:	48 89 f0             	mov    rax,rsi
  4004b7:	48 c1 e8 3f          	shr    rax,0x3f
  4004bb:	48 01 c6             	add    rsi,rax
  4004be:	48 d1 fe             	sar    rsi,1
  4004c1:	74 15                	je     4004d8 <register_tm_clones+0x38>
  4004c3:	b8 00 00 00 00       	mov    eax,0x0
  4004c8:	48 85 c0             	test   rax,rax
  4004cb:	74 0b                	je     4004d8 <register_tm_clones+0x38>
  4004cd:	5d                   	pop    rbp
  4004ce:	bf 40 10 60 00       	mov    edi,0x601040
  4004d3:	ff e0                	jmp    rax
  4004d5:	0f 1f 00             	nop    DWORD PTR [rax]
  4004d8:	5d                   	pop    rbp
  4004d9:	c3                   	ret    
  4004da:	66 0f 1f 44 00 00    	nop    WORD PTR [rax+rax*1+0x0]

00000000004004e0 <__do_global_dtors_aux>:
  4004e0:	80 3d 55 0b 20 00 00 	cmp    BYTE PTR [rip+0x200b55],0x0        # 60103c <_edata>
  4004e7:	75 11                	jne    4004fa <__do_global_dtors_aux+0x1a>
  4004e9:	55                   	push   rbp
  4004ea:	48 89 e5             	mov    rbp,rsp
  4004ed:	e8 6e ff ff ff       	call   400460 <deregister_tm_clones>
  4004f2:	5d                   	pop    rbp
  4004f3:	c6 05 42 0b 20 00 01 	mov    BYTE PTR [rip+0x200b42],0x1        # 60103c <_edata>
  4004fa:	f3 c3                	repz ret 
  4004fc:	0f 1f 40 00          	nop    DWORD PTR [rax+0x0]

0000000000400500 <frame_dummy>:
  400500:	bf 20 0e 60 00       	mov    edi,0x600e20
  400505:	48 83 3f 00          	cmp    QWORD PTR [rdi],0x0
  400509:	75 05                	jne    400510 <frame_dummy+0x10>
  40050b:	eb 93                	jmp    4004a0 <register_tm_clones>
  40050d:	0f 1f 00             	nop    DWORD PTR [rax]
  400510:	b8 00 00 00 00       	mov    eax,0x0
  400515:	48 85 c0             	test   rax,rax
  400518:	74 f1                	je     40050b <frame_dummy+0xb>
  40051a:	55                   	push   rbp
  40051b:	48 89 e5             	mov    rbp,rsp
  40051e:	ff d0                	call   rax
  400520:	5d                   	pop    rbp
  400521:	e9 7a ff ff ff       	jmp    4004a0 <register_tm_clones>

0000000000400526 <main>:
  400526:	55                   	push   rbp
  400527:	48 89 e5             	mov    rbp,rsp
  40052a:	48 83 ec 10          	sub    rsp,0x10
  40052e:	c7 45 fc 7b 00 00 00 	mov    DWORD PTR [rbp-0x4],0x7b
  400535:	c6 45 fb 78          	mov    BYTE PTR [rbp-0x5],0x78
  400539:	bf d4 05 40 00       	mov    edi,0x4005d4
  40053e:	e8 bd fe ff ff       	call   400400 <puts@plt>
  400543:	b8 00 00 00 00       	mov    eax,0x0
  400548:	c9                   	leave  
  400549:	c3                   	ret    
  40054a:	66 0f 1f 44 00 00    	nop    WORD PTR [rax+rax*1+0x0]

0000000000400550 <__libc_csu_init>:
  400550:	41 57                	push   r15
  400552:	41 56                	push   r14
  400554:	41 89 ff             	mov    r15d,edi
  400557:	41 55                	push   r13
  400559:	41 54                	push   r12
  40055b:	4c 8d 25 ae 08 20 00 	lea    r12,[rip+0x2008ae]        # 600e10 <__frame_dummy_init_array_entry>
  400562:	55                   	push   rbp
  400563:	48 8d 2d ae 08 20 00 	lea    rbp,[rip+0x2008ae]        # 600e18 <__init_array_end>
  40056a:	53                   	push   rbx
  40056b:	49 89 f6             	mov    r14,rsi
  40056e:	49 89 d5             	mov    r13,rdx
  400571:	4c 29 e5             	sub    rbp,r12
  400574:	48 83 ec 08          	sub    rsp,0x8
  400578:	48 c1 fd 03          	sar    rbp,0x3
  40057c:	e8 47 fe ff ff       	call   4003c8 <_init>
  400581:	48 85 ed             	test   rbp,rbp
  400584:	74 20                	je     4005a6 <__libc_csu_init+0x56>
  400586:	31 db                	xor    ebx,ebx
  400588:	0f 1f 84 00 00 00 00 	nop    DWORD PTR [rax+rax*1+0x0]
  40058f:	00 
  400590:	4c 89 ea             	mov    rdx,r13
  400593:	4c 89 f6             	mov    rsi,r14
  400596:	44 89 ff             	mov    edi,r15d
  400599:	41 ff 14 dc          	call   QWORD PTR [r12+rbx*8]
  40059d:	48 83 c3 01          	add    rbx,0x1
  4005a1:	48 39 eb             	cmp    rbx,rbp
  4005a4:	75 ea                	jne    400590 <__libc_csu_init+0x40>
  4005a6:	48 83 c4 08          	add    rsp,0x8
  4005aa:	5b                   	pop    rbx
  4005ab:	5d                   	pop    rbp
  4005ac:	41 5c                	pop    r12
  4005ae:	41 5d                	pop    r13
  4005b0:	41 5e                	pop    r14
  4005b2:	41 5f                	pop    r15
  4005b4:	c3                   	ret    
  4005b5:	90                   	nop
  4005b6:	66 2e 0f 1f 84 00 00 	nop    WORD PTR cs:[rax+rax*1+0x0]
  4005bd:	00 00 00 

00000000004005c0 <__libc_csu_fini>:
  4005c0:	f3 c3                	repz ret 

Disassembly of section .fini:

00000000004005c4 <_fini>:
  4005c4:	48 83 ec 08          	sub    rsp,0x8
  4005c8:	48 83 c4 08          	add    rsp,0x8
  4005cc:	c3                   	ret    
